; Function Attrs: mustprogress uwtable
define hidden void @_ZN3opt6optsmt12update_upperEjRK16inf_eps_rationalI12inf_rationalE(ptr noundef nonnull readonly align 8 captures(none) dereferenceable(120) %0, i32 noundef %1, ptr noundef nonnull align 8 dereferenceable(96) %2) local_unnamed_addr #4 align 2 {
  %4 = getelementptr inbounds nuw i8, ptr %0, i64 32
  %5 = load ptr, ptr %4, align 8, !tbaa !3
  %6 = zext i32 %1 to i64
  %7 = getelementptr inbounds nuw %class.inf_eps_rational, ptr %5, i64 %6
  %8 = load ptr, ptr @_ZN8rational13g_mpq_managerE, align 8, !tbaa !11
  %9 = getelementptr inbounds nuw i8, ptr %2, i64 4
  %10 = load i8, ptr %9, align 4
  %11 = and i8 %10, 1
  %12 = icmp eq i8 %11, 0
  br i1 %12, label %13, label %18

13:                                               ; preds = %3
  %14 = load i32, ptr %2, align 8, !tbaa !13
  store i32 %14, ptr %7, align 8, !tbaa !13
  %15 = getelementptr inbounds nuw i8, ptr %7, i64 4
  %16 = load i8, ptr %15, align 4
  %17 = and i8 %16, -2
  store i8 %17, ptr %15, align 4
  br label %_ZN11mpq_managerILb1EE3setER3mpzRKS1_.exit.i.i.i

18:                                               ; preds = %3
  tail call void @_ZN11mpz_managerILb1EE7big_setER3mpzRKS1_(ptr noundef nonnull align 8 dereferenceable(728) %8, ptr noundef nonnull align 8 dereferenceable(96) %7, ptr noundef nonnull align 8 dereferenceable(96) %2)
  br label %_ZN11mpq_managerILb1EE3setER3mpzRKS1_.exit.i.i.i

_ZN11mpq_managerILb1EE3setER3mpzRKS1_.exit.i.i.i: ; preds = %18, %13
  %19 = getelementptr inbounds nuw i8, ptr %7, i64 16
  %20 = getelementptr inbounds nuw i8, ptr %2, i64 16
  %21 = getelementptr inbounds nuw i8, ptr %2, i64 20
  %22 = load i8, ptr %21, align 4
  %23 = and i8 %22, 1
  %24 = icmp eq i8 %23, 0
  br i1 %24, label %25, label %30

25:                                               ; preds = %_ZN11mpq_managerILb1EE3setER3mpzRKS1_.exit.i.i.i
  %26 = load i32, ptr %20, align 8, !tbaa !13
  store i32 %26, ptr %19, align 8, !tbaa !13
  %27 = getelementptr inbounds nuw i8, ptr %7, i64 20
  %28 = load i8, ptr %27, align 4
  %29 = and i8 %28, -2
  store i8 %29, ptr %27, align 4
  br label %_ZN16inf_eps_rationalI12inf_rationalEaSERKS1_.exit

30:                                               ; preds = %_ZN11mpq_managerILb1EE3setER3mpzRKS1_.exit.i.i.i
  tail call void @_ZN11mpz_managerILb1EE7big_setER3mpzRKS1_(ptr noundef nonnull align 8 dereferenceable(728) %8, ptr noundef nonnull align 8 dereferenceable(16) %19, ptr noundef nonnull align 8 dereferenceable(16) %20)
  br label %_ZN16inf_eps_rationalI12inf_rationalEaSERKS1_.exit

_ZN16inf_eps_rationalI12inf_rationalEaSERKS1_.exit: ; preds = %25, %30
  %31 = getelementptr inbounds nuw i8, ptr %7, i64 32
  %32 = getelementptr inbounds nuw i8, ptr %2, i64 32
  %33 = tail call noundef nonnull align 8 dereferenceable(64) ptr @_ZN12inf_rationalaSERKS_(ptr noundef nonnull align 8 dereferenceable(64) %31, ptr noundef nonnull align 8 dereferenceable(64) %32)
  ret void
}